target datalayout = "e-m:e-p270:32:32-p271:32:32-p272:64:64-i64:64-i128:128-f80:128-n8:16:32:64-S128"
target triple = "x86_64-pc-linux-gnu"

@Npn_TruthPermute_rec.count = internal global i32 0, align 4
@.str = private unnamed_addr constant [10 x i8] c"%03d: %s\0A\00", align 1

; Function Attrs: nounwind uwtable
define internal ptr @Abc_UtilStrsav(ptr noundef %0) #0 {
  %2 = alloca ptr, align 8
  store ptr %0, ptr %2, align 8
  %3 = load ptr, ptr %2, align 8
  %4 = icmp ne ptr %3, null
  br i1 %4, label %5, label %13

5:                                                ; preds = %1
  %6 = load ptr, ptr %2, align 8
  %7 = call i64 @strlen(ptr noundef %6) #9
  %8 = add i64 %7, 1
  %9 = mul i64 1, %8
  %10 = call noalias ptr @malloc(i64 noundef %9) #10
  %11 = load ptr, ptr %2, align 8
  %12 = call ptr @strcpy(ptr noundef %10, ptr noundef %11) #8
  br label %14

13:                                               ; preds = %1
  br label %14

14:                                               ; preds = %13, %5
  %15 = phi ptr [ %12, %5 ], [ null, %13 ]
  ret ptr %15
}

; Function Attrs: nounwind uwtable
define void @Npn_TruthPermute_rec(ptr noundef %0, i32 noundef %1, i32 noundef %2) #0 {
  %4 = alloca ptr, align 8
  %5 = alloca i32, align 4
  %6 = alloca i32, align 4
  %7 = alloca ptr, align 8
  %8 = alloca i8, align 1
  %9 = alloca i32, align 4
  store ptr %0, ptr %4, align 8
  store i32 %1, ptr %5, align 4
  store i32 %2, ptr %6, align 4
  %10 = load ptr, ptr %4, align 8
  %11 = call ptr @Abc_UtilStrsav(ptr noundef %10)
  store ptr %11, ptr %7, align 8
  %12 = load i32, ptr %5, align 4
  %13 = load i32, ptr %6, align 4
  %14 = icmp eq i32 %12, %13
  br i1 %14, label %15, label %20

15:                                               ; preds = %3
  %16 = load i32, ptr @Npn_TruthPermute_rec.count, align 4
  %17 = add nsw i32 %16, 1
  store i32 %17, ptr @Npn_TruthPermute_rec.count, align 4
  %18 = load ptr, ptr %7, align 8
  %19 = call i32 (ptr, ...) @printf(ptr noundef @.str, i32 noundef %16, ptr noundef %18)
  br label %79

20:                                               ; preds = %3
  %21 = load i32, ptr %5, align 4
  store i32 %21, ptr %9, align 4
  br label %22

22:                                               ; preds = %69, %20
  %23 = load i32, ptr %9, align 4
  %24 = load i32, ptr %6, align 4
  %25 = icmp sle i32 %23, %24
  br i1 %25, label %26, label %72

26:                                               ; preds = %22
  %27 = load ptr, ptr %7, align 8
  %28 = load i32, ptr %5, align 4
  %29 = sext i32 %28 to i64
  %30 = getelementptr inbounds i8, ptr %27, i64 %29
  %31 = load i8, ptr %30, align 1
  store i8 %31, ptr %8, align 1
  %32 = load ptr, ptr %7, align 8
  %33 = load i32, ptr %9, align 4
  %34 = sext i32 %33 to i64
  %35 = getelementptr inbounds i8, ptr %32, i64 %34
  %36 = load i8, ptr %35, align 1
  %37 = load ptr, ptr %7, align 8
  %38 = load i32, ptr %5, align 4
  %39 = sext i32 %38 to i64
  %40 = getelementptr inbounds i8, ptr %37, i64 %39
  store i8 %36, ptr %40, align 1
  %41 = load i8, ptr %8, align 1
  %42 = load ptr, ptr %7, align 8
  %43 = load i32, ptr %9, align 4
  %44 = sext i32 %43 to i64
  %45 = getelementptr inbounds i8, ptr %42, i64 %44
  store i8 %41, ptr %45, align 1
  %46 = load ptr, ptr %7, align 8
  %47 = load i32, ptr %5, align 4
  %48 = add nsw i32 %47, 1
  %49 = load i32, ptr %6, align 4
  call void @Npn_TruthPermute_rec(ptr noundef %46, i32 noundef %48, i32 noundef %49)
  %50 = load ptr, ptr %7, align 8
  %51 = load i32, ptr %5, align 4
  %52 = sext i32 %51 to i64
  %53 = getelementptr inbounds i8, ptr %50, i64 %52
  %54 = load i8, ptr %53, align 1
  store i8 %54, ptr %8, align 1
  %55 = load ptr, ptr %7, align 8
  %56 = load i32, ptr %9, align 4
  %57 = sext i32 %56 to i64
  %58 = getelementptr inbounds i8, ptr %55, i64 %57
  %59 = load i8, ptr %58, align 1
  %60 = load ptr, ptr %7, align 8
  %61 = load i32, ptr %5, align 4
  %62 = sext i32 %61 to i64
  %63 = getelementptr inbounds i8, ptr %60, i64 %62
  store i8 %59, ptr %63, align 1
  %64 = load i8, ptr %8, align 1
  %65 = load ptr, ptr %7, align 8
  %66 = load i32, ptr %9, align 4
  %67 = sext i32 %66 to i64
  %68 = getelementptr inbounds i8, ptr %65, i64 %67
  store i8 %64, ptr %68, align 1
  br label %69

69:                                               ; preds = %26
  %70 = load i32, ptr %9, align 4
  %71 = add nsw i32 %70, 1
  store i32 %71, ptr %9, align 4
  br label %22, !llvm.loop !4

72:                                               ; preds = %22
  %73 = load ptr, ptr %7, align 8
  %74 = icmp ne ptr %73, null
  br i1 %74, label %75, label %77

75:                                               ; preds = %72
  %76 = load ptr, ptr %7, align 8
  call void @free(ptr noundef %76) #8
  store ptr null, ptr %7, align 8
  br label %78

77:                                               ; preds = %72
  br label %78

78:                                               ; preds = %77, %75
  br label %79

79:                                               ; preds = %78, %15
  ret void
}