; Function Attrs: nounwind uwtable
define void @Npn_TruthPermute_rec(ptr noundef readonly %0, i32 noundef %1, i32 noundef %2) local_unnamed_addr #0 {
  %.not.i = icmp eq ptr %0, null
  br i1 %.not.i, label %Abc_UtilStrsav.exit, label %4

4:                                                ; preds = %3
  %5 = tail call i64 @strlen(ptr noundef nonnull readonly dereferenceable(1) %0) #20
  %6 = add i64 %5, 1
  %7 = tail call noalias ptr @malloc(i64 noundef %6) #21
  %8 = tail call ptr @strcpy(ptr noundef nonnull dereferenceable(1) %7, ptr noundef nonnull readonly dereferenceable(1) %0) #22
  br label %Abc_UtilStrsav.exit

Abc_UtilStrsav.exit:                              ; preds = %3, %4
  %9 = phi ptr [ %7, %4 ], [ null, %3 ]
  %10 = icmp eq i32 %1, %2
  br i1 %10, label %15, label %.preheader

.preheader:                                       ; preds = %Abc_UtilStrsav.exit
  %.not34 = icmp sgt i32 %1, %2
  br i1 %.not34, label %._crit_edge, label %.lr.ph

.lr.ph:                                           ; preds = %.preheader
  %11 = sext i32 %1 to i64
  %12 = getelementptr inbounds i8, ptr %9, i64 %11
  %13 = add nsw i32 %1, 1
  %14 = add i32 %2, 1
  br label %19

15:                                               ; preds = %Abc_UtilStrsav.exit
  %16 = load i32, ptr @Npn_TruthPermute_rec.count, align 4
  %17 = add nsw i32 %16, 1
  store i32 %17, ptr @Npn_TruthPermute_rec.count, align 4
  %18 = tail call i32 (ptr, ...) @printf(ptr noundef nonnull dereferenceable(1) @.str, i32 noundef %16, ptr noundef %9)
  br label %25

19:                                               ; preds = %.lr.ph, %19
  %indvars.iv = phi i64 [ %11, %.lr.ph ], [ %indvars.iv.next, %19 ]
  %20 = load i8, ptr %12, align 1
  %21 = getelementptr inbounds i8, ptr %9, i64 %indvars.iv
  %22 = load i8, ptr %21, align 1
  store i8 %22, ptr %12, align 1
  store i8 %20, ptr %21, align 1
  tail call void @Npn_TruthPermute_rec(ptr noundef %9, i32 noundef %13, i32 noundef %2)
  %23 = load i8, ptr %12, align 1
  %24 = load i8, ptr %21, align 1
  store i8 %24, ptr %12, align 1
  store i8 %23, ptr %21, align 1
  %indvars.iv.next = add nsw i64 %indvars.iv, 1
  %lftr.wideiv = trunc i64 %indvars.iv.next to i32
  %exitcond.not = icmp eq i32 %14, %lftr.wideiv
  br i1 %exitcond.not, label %._crit_edge.thread, label %19, !llvm.loop !4

._crit_edge:                                      ; preds = %.preheader
  %.not33 = icmp eq ptr %9, null
  br i1 %.not33, label %25, label %._crit_edge.thread

._crit_edge.thread:                               ; preds = %19, %._crit_edge
  tail call void @free(ptr noundef nonnull %9) #22
  br label %25

25:                                               ; preds = %._crit_edge.thread, %._crit_edge, %15
  ret void
}